; Function Attrs: nounwind uwtable
define dso_local void @uv_sem_destroy(ptr noundef %0) local_unnamed_addr #0 {
  %2 = load i32, ptr @platform_needs_custom_semaphore, align 4, !tbaa !14
  %.not = icmp eq i32 %2, 0
  br i1 %.not, label %9, label %3

3:                                                ; preds = %1
  %.val = load ptr, ptr %0, align 8, !tbaa !17
  %4 = getelementptr inbounds nuw i8, ptr %.val, i64 40
  %5 = tail call i32 @pthread_cond_destroy(ptr noundef nonnull %4) #10
  %.not.i.i = icmp eq i32 %5, 0
  br i1 %.not.i.i, label %uv_cond_destroy.exit.i, label %6

6:                                                ; preds = %3
  tail call void @abort() #11
  unreachable

uv_cond_destroy.exit.i:                           ; preds = %3
  %7 = tail call i32 @pthread_mutex_destroy(ptr noundef nonnull %.val) #10
  %.not.i4.i = icmp eq i32 %7, 0
  br i1 %.not.i4.i, label %uv__custom_sem_destroy.exit, label %8

8:                                                ; preds = %uv_cond_destroy.exit.i
  tail call void @abort() #11
  unreachable

uv__custom_sem_destroy.exit:                      ; preds = %uv_cond_destroy.exit.i
  tail call void @uv__free(ptr noundef nonnull %.val) #10
  br label %uv__sem_destroy.exit

9:                                                ; preds = %1
  %10 = tail call i32 @sem_destroy(ptr noundef %0) #10
  %.not.i = icmp eq i32 %10, 0
  br i1 %.not.i, label %uv__sem_destroy.exit, label %11

11:                                               ; preds = %9
  tail call void @abort() #11
  unreachable

uv__sem_destroy.exit:                             ; preds = %9, %uv__custom_sem_destroy.exit
  ret void
}